; Function Attrs: nofree nosync nounwind memory(readwrite, inaccessiblemem: none) uwtable
define internal fastcc range(i32 0, 2) i32 @recursive_call_check_trav(ptr noundef captures(none) %0, ptr noundef nonnull %1, i32 noundef range(i32 0, 2) %2) unnamed_addr #15 {
  br label %tailrecurse

tailrecurse:                                      ; preds = %25, %3
  %.tr = phi ptr [ %0, %3 ], [ %27, %25 ]
  %4 = load i32, ptr %.tr, align 8, !tbaa !20
  switch i32 %4, label %common.ret113 [
    i32 7, label %.preheader
    i32 8, label %.preheader
    i32 4, label %11
    i32 6, label %21
    i32 5, label %28
  ]

.preheader:                                       ; preds = %tailrecurse, %tailrecurse
  br label %5

5:                                                ; preds = %.preheader, %5
  %.058 = phi i32 [ %spec.select98, %5 ], [ 0, %.preheader ]
  %.056 = phi ptr [ %10, %5 ], [ %.tr, %.preheader ]
  %6 = getelementptr inbounds nuw i8, ptr %.056, i64 16
  %7 = load ptr, ptr %6, align 8, !tbaa !20
  %8 = tail call fastcc i32 @recursive_call_check_trav(ptr noundef %7, ptr noundef %1, i32 noundef %2)
  %.not93 = icmp eq i32 %8, 0
  %spec.select98 = select i1 %.not93, i32 %.058, i32 1
  %9 = getelementptr inbounds nuw i8, ptr %.056, i64 24
  %10 = load ptr, ptr %9, align 8, !tbaa !20
  %.not72 = icmp eq ptr %10, null
  br i1 %.not72, label %common.ret113, label %5, !llvm.loop !217

11:                                               ; preds = %tailrecurse
  %12 = getelementptr inbounds nuw i8, ptr %.tr, i64 16
  %13 = load ptr, ptr %12, align 8, !tbaa !20
  %14 = tail call fastcc i32 @recursive_call_check_trav(ptr noundef %13, ptr noundef %1, i32 noundef %2)
  %15 = getelementptr inbounds nuw i8, ptr %.tr, i64 28
  %16 = load i32, ptr %15, align 4, !tbaa !20
  %17 = icmp eq i32 %16, 0
  %18 = icmp ne i32 %14, 0
  %or.cond = select i1 %17, i1 %18, i1 false
  br i1 %or.cond, label %19, label %common.ret113

19:                                               ; preds = %11
  %20 = getelementptr inbounds nuw i8, ptr %.tr, i64 56
  store i32 1, ptr %20, align 8, !tbaa !20
  br label %common.ret113

21:                                               ; preds = %tailrecurse
  %22 = getelementptr inbounds nuw i8, ptr %.tr, i64 24
  %23 = load i32, ptr %22, align 8, !tbaa !155
  %24 = icmp slt i32 %23, 16
  br i1 %24, label %25, label %common.ret113

25:                                               ; preds = %21
  %26 = getelementptr inbounds nuw i8, ptr %.tr, i64 16
  %27 = load ptr, ptr %26, align 8, !tbaa !158
  br label %tailrecurse

28:                                               ; preds = %tailrecurse
  %29 = getelementptr inbounds nuw i8, ptr %.tr, i64 24
  %30 = load i32, ptr %29, align 8, !tbaa !98
  %31 = icmp eq i32 %30, 0
  %32 = getelementptr inbounds nuw i8, ptr %.tr, i64 4
  %33 = load i32, ptr %32, align 4, !tbaa !20
  br i1 %31, label %34, label %._crit_edge

34:                                               ; preds = %28
  %35 = and i32 %33, 128
  %.not = icmp eq i32 %35, 0
  br i1 %.not, label %36, label %37

36:                                               ; preds = %34
  %.not65 = icmp eq i32 %2, 0
  br i1 %.not65, label %._crit_edge, label %37

37:                                               ; preds = %34, %36
  %.6 = phi i32 [ 0, %36 ], [ 1, %34 ]
  %38 = and i32 %33, 64
  %.not66 = icmp eq i32 %38, 0
  br i1 %.not66, label %39, label %._crit_edge

39:                                               ; preds = %37
  %40 = or i32 %33, 8
  store i32 %40, ptr %32, align 4, !tbaa !20
  %41 = getelementptr inbounds nuw i8, ptr %.tr, i64 16
  %42 = load ptr, ptr %41, align 8, !tbaa !20
  %43 = tail call fastcc i32 @recursive_call_check(ptr noundef %42)
  %.not67 = icmp eq i32 %43, 0
  br i1 %.not67, label %56, label %44

44:                                               ; preds = %39
  %45 = load i32, ptr %32, align 4, !tbaa !20
  %46 = or i32 %45, 64
  store i32 %46, ptr %32, align 4, !tbaa !20
  %47 = getelementptr inbounds nuw i8, ptr %.tr, i64 32
  %48 = load i32, ptr %47, align 8, !tbaa !20
  %49 = icmp slt i32 %48, 32
  br i1 %49, label %50, label %.sink.split

50:                                               ; preds = %44
  %.not68 = icmp eq i32 %48, 0
  br i1 %.not68, label %56, label %51

51:                                               ; preds = %50
  %52 = shl nuw i32 1, %48
  br label %.sink.split

.sink.split:                                      ; preds = %44, %51
  %.sink101 = phi i32 [ %52, %51 ], [ 1, %44 ]
  %53 = getelementptr inbounds nuw i8, ptr %1, i64 28
  %54 = load i32, ptr %53, align 4, !tbaa !39
  %55 = or i32 %54, %.sink101
  store i32 %55, ptr %53, align 4, !tbaa !39
  br label %56

56:                                               ; preds = %.sink.split, %50, %39
  %57 = load i32, ptr %32, align 4, !tbaa !20
  %58 = and i32 %57, -9
  store i32 %58, ptr %32, align 4, !tbaa !20
  br label %._crit_edge

._crit_edge:                                      ; preds = %28, %37, %56, %36
  %59 = phi i32 [ %33, %37 ], [ %58, %56 ], [ %33, %36 ], [ %33, %28 ]
  %.5 = phi i32 [ %.6, %37 ], [ %.6, %56 ], [ 0, %36 ], [ 0, %28 ]
  %60 = and i32 %59, 64
  %.not69 = icmp eq i32 %60, 0
  %spec.select = select i1 %.not69, i32 %2, i32 1
  %61 = getelementptr inbounds nuw i8, ptr %.tr, i64 16
  %62 = load ptr, ptr %61, align 8, !tbaa !20
  %63 = tail call fastcc i32 @recursive_call_check_trav(ptr noundef %62, ptr noundef %1, i32 noundef %spec.select)
  %.not90 = icmp eq i32 %63, 0
  %.7 = select i1 %.not90, i32 %.5, i32 1
  %64 = load i32, ptr %29, align 8, !tbaa !98
  %65 = icmp eq i32 %64, 3
  br i1 %65, label %66, label %common.ret113

66:                                               ; preds = %._crit_edge
  %67 = getelementptr inbounds nuw i8, ptr %.tr, i64 32
  %68 = load ptr, ptr %67, align 8, !tbaa !20
  %.not70 = icmp eq ptr %68, null
  br i1 %.not70, label %71, label %69

69:                                               ; preds = %66
  %70 = tail call fastcc i32 @recursive_call_check_trav(ptr noundef nonnull %68, ptr noundef %1, i32 noundef %spec.select)
  %.not91 = icmp eq i32 %70, 0
  %spec.select73 = select i1 %.not91, i32 %.7, i32 1
  br label %71

71:                                               ; preds = %69, %66
  %.9 = phi i32 [ %.7, %66 ], [ %spec.select73, %69 ]
  %72 = getelementptr inbounds nuw i8, ptr %.tr, i64 40
  %73 = load ptr, ptr %72, align 8, !tbaa !20
  %.not71 = icmp eq ptr %73, null
  br i1 %.not71, label %common.ret113, label %74

common.ret113:                                    ; preds = %19, %11, %71, %._crit_edge, %5, %tailrecurse, %21, %74
  %common.ret113.op = phi i32 [ %spec.select74, %74 ], [ 1, %19 ], [ %14, %11 ], [ %.9, %71 ], [ %.7, %._crit_edge ], [ %spec.select98, %5 ], [ 0, %tailrecurse ], [ 0, %21 ]
  ret i32 %common.ret113.op

74:                                               ; preds = %71
  %75 = tail call fastcc i32 @recursive_call_check_trav(ptr noundef nonnull %73, ptr noundef %1, i32 noundef %spec.select)
  %.not92 = icmp eq i32 %75, 0
  %spec.select74 = select i1 %.not92, i32 %.9, i32 1
  br label %common.ret113
}